target datalayout = "e-m:e-p270:32:32-p271:32:32-p272:64:64-i64:64-i128:128-f80:128-n8:16:32:64-S128"
target triple = "x86_64-pc-linux-gnu"

@_mi_numa_node_count = hidden global i64 0, align 8
@.str.5 = private unnamed_addr constant [24 x i8] c"using %zd numa regions\0A\00", align 1

; Function Attrs: nounwind uwtable
define hidden i64 @_mi_os_numa_node_count_get() #0 {
  %1 = alloca i64, align 8
  %2 = alloca i64, align 8
  %3 = alloca i64, align 8
  %4 = alloca i64, align 8
  call void @llvm.lifetime.start.p0(i64 8, ptr %1) #9
  %5 = load atomic i64, ptr @_mi_numa_node_count acquire, align 8
  store i64 %5, ptr %2, align 8
  %6 = load i64, ptr %2, align 8, !tbaa !14
  store i64 %6, ptr %1, align 8, !tbaa !14
  %7 = load i64, ptr %1, align 8, !tbaa !14
  %8 = icmp ule i64 %7, 0
  br i1 %8, label %9, label %25

9:                                                ; preds = %0
  call void @llvm.lifetime.start.p0(i64 8, ptr %3) #9
  %10 = call i64 @mi_option_get(i32 noundef 16) #8
  store i64 %10, ptr %3, align 8, !tbaa !14
  %11 = load i64, ptr %3, align 8, !tbaa !14
  %12 = icmp sgt i64 %11, 0
  br i1 %12, label %13, label %15

13:                                               ; preds = %9
  %14 = load i64, ptr %3, align 8, !tbaa !14
  store i64 %14, ptr %1, align 8, !tbaa !14
  br label %21

15:                                               ; preds = %9
  %16 = call i64 @_mi_prim_numa_node_count() #8
  store i64 %16, ptr %1, align 8, !tbaa !14
  %17 = load i64, ptr %1, align 8, !tbaa !14
  %18 = icmp eq i64 %17, 0
  br i1 %18, label %19, label %20

19:                                               ; preds = %15
  store i64 1, ptr %1, align 8, !tbaa !14
  br label %20

20:                                               ; preds = %19, %15
  br label %21

21:                                               ; preds = %20, %13
  %22 = load i64, ptr %1, align 8, !tbaa !14
  store i64 %22, ptr %4, align 8, !tbaa !14
  %23 = load i64, ptr %4, align 8
  store atomic i64 %23, ptr @_mi_numa_node_count release, align 8
  %24 = load i64, ptr %1, align 8, !tbaa !14
  call void (ptr, ...) @_mi_verbose_message(ptr noundef @.str.5, i64 noundef %24) #8
  call void @llvm.lifetime.end.p0(i64 8, ptr %3) #9
  br label %25

25:                                               ; preds = %21, %0
  %26 = load i64, ptr %1, align 8, !tbaa !14
  call void @llvm.lifetime.end.p0(i64 8, ptr %1) #9
  ret i64 %26
}