; Function Attrs: nounwind uwtable
define hidden range(i64 1, 0) i64 @_mi_os_numa_node_count_get() local_unnamed_addr #1 {
  %1 = load atomic i64, ptr @_mi_numa_node_count acquire, align 8
  %2 = icmp eq i64 %1, 0
  br i1 %2, label %3, label %9

3:                                                ; preds = %0
  %4 = tail call i64 @mi_option_get(i32 noundef 16) #7
  %5 = icmp sgt i64 %4, 0
  br i1 %5, label %8, label %6

6:                                                ; preds = %3
  %7 = tail call i64 @_mi_prim_numa_node_count() #7
  %spec.store.select = tail call i64 @llvm.umax.i64(i64 %7, i64 1)
  br label %8

8:                                                ; preds = %3, %6
  %.1 = phi i64 [ %spec.store.select, %6 ], [ %4, %3 ]
  store atomic i64 %.1, ptr @_mi_numa_node_count release, align 8
  tail call void (ptr, ...) @_mi_verbose_message(ptr noundef nonnull @.str.5, i64 noundef %.1) #7
  br label %9

9:                                                ; preds = %8, %0
  %.0 = phi i64 [ %.1, %8 ], [ %1, %0 ]
  ret i64 %.0
}